target datalayout = "e-m:e-p270:32:32-p271:32:32-p272:64:64-i64:64-i128:128-f80:128-n8:16:32:64-S128"
target triple = "x86_64-pc-linux-gnu"

@global_mbus_tcp_rtu_ports = internal global ptr null, align 8

; Function Attrs: null_pointer_is_valid sspstrong uwtable
define internal i32 @get_mbrtu_pdu_len(ptr noundef %0, ptr noundef %1, i32 noundef %2, ptr noundef %3) #0 {
  %5 = alloca i32, align 4
  %6 = alloca ptr, align 8
  %7 = alloca ptr, align 8
  %8 = alloca i32, align 4
  %9 = alloca ptr, align 8
  %10 = alloca i32, align 4
  %11 = alloca i8, align 1
  %12 = alloca i32, align 4
  store ptr %0, ptr %6, align 8
  store ptr %1, ptr %7, align 8
  store i32 %2, ptr %8, align 4
  store ptr %3, ptr %9, align 8
  call void @llvm.lifetime.start.p0(i64 4, ptr %10) #10
  call void @llvm.lifetime.start.p0(i64 1, ptr %11) #10
  %13 = load ptr, ptr %7, align 8
  %14 = call zeroext i8 @tvb_get_uint8(ptr noundef %13, i32 noundef 1)
  store i8 %14, ptr %11, align 1
  %15 = load ptr, ptr %6, align 8
  %16 = load ptr, ptr %7, align 8
  %17 = load ptr, ptr @global_mbus_tcp_rtu_ports, align 8
  %18 = call i32 @classify_mbrtu_packet(ptr noundef %15, ptr noundef %16, ptr noundef %17)
  store i32 %18, ptr %10, align 4
  %19 = load i32, ptr %10, align 4
  switch i32 %19, label %51 [
    i32 0, label %20
    i32 1, label %32
    i32 2, label %50
  ]

20:                                               ; preds = %4
  %21 = load i8, ptr %11, align 1
  %22 = zext i8 %21 to i32
  switch i32 %22, label %29 [
    i32 1, label %23
    i32 2, label %23
    i32 3, label %23
    i32 4, label %23
    i32 5, label %23
    i32 6, label %23
    i32 16, label %24
    i32 15, label %24
  ]

23:                                               ; preds = %20, %20, %20, %20, %20, %20
  store i32 8, ptr %5, align 4
  store i32 1, ptr %12, align 4
  br label %54

24:                                               ; preds = %20, %20
  %25 = load ptr, ptr %7, align 8
  %26 = call zeroext i8 @tvb_get_uint8(ptr noundef %25, i32 noundef 6)
  %27 = zext i8 %26 to i32
  %28 = add i32 %27, 9
  store i32 %28, ptr %5, align 4
  store i32 1, ptr %12, align 4
  br label %54

29:                                               ; preds = %20
  %30 = load ptr, ptr %7, align 8
  %31 = call i32 @tvb_captured_length(ptr noundef %30)
  store i32 %31, ptr %5, align 4
  store i32 1, ptr %12, align 4
  br label %54

32:                                               ; preds = %4
  %33 = load i8, ptr %11, align 1
  %34 = zext i8 %33 to i32
  %35 = and i32 %34, 128
  %36 = icmp ne i32 %35, 0
  br i1 %36, label %37, label %38

37:                                               ; preds = %32
  store i32 5, ptr %5, align 4
  store i32 1, ptr %12, align 4
  br label %54

38:                                               ; preds = %32
  %39 = load i8, ptr %11, align 1
  %40 = zext i8 %39 to i32
  switch i32 %40, label %47 [
    i32 1, label %41
    i32 2, label %41
    i32 3, label %41
    i32 4, label %41
    i32 5, label %46
    i32 6, label %46
    i32 16, label %46
    i32 15, label %46
  ]

41:                                               ; preds = %38, %38, %38, %38
  %42 = load ptr, ptr %7, align 8
  %43 = call zeroext i8 @tvb_get_uint8(ptr noundef %42, i32 noundef 2)
  %44 = zext i8 %43 to i32
  %45 = add i32 %44, 5
  store i32 %45, ptr %5, align 4
  store i32 1, ptr %12, align 4
  br label %54

46:                                               ; preds = %38, %38, %38, %38
  store i32 8, ptr %5, align 4
  store i32 1, ptr %12, align 4
  br label %54

47:                                               ; preds = %38
  %48 = load ptr, ptr %7, align 8
  %49 = call i32 @tvb_captured_length(ptr noundef %48)
  store i32 %49, ptr %5, align 4
  store i32 1, ptr %12, align 4
  br label %54

50:                                               ; preds = %4
  br label %51

51:                                               ; preds = %4, %50
  %52 = load ptr, ptr %7, align 8
  %53 = call i32 @tvb_captured_length(ptr noundef %52)
  store i32 %53, ptr %5, align 4
  store i32 1, ptr %12, align 4
  br label %54

54:                                               ; preds = %51, %47, %46, %41, %37, %29, %24, %23
  call void @llvm.lifetime.end.p0(i64 1, ptr %11) #10
  call void @llvm.lifetime.end.p0(i64 4, ptr %10) #10
  %55 = load i32, ptr %5, align 4
  ret i32 %55
}