; Function Attrs: null_pointer_is_valid sspstrong uwtable
define internal i32 @get_mbrtu_pdu_len(ptr noundef readonly captures(none) %0, ptr noundef %1, i32 %2, ptr readnone captures(none) %3) #0 {
  %5 = tail call zeroext i8 @tvb_get_uint8(ptr noundef %1, i32 noundef 1)
  %6 = load ptr, ptr @global_mbus_tcp_rtu_ports, align 8
  %7 = tail call fastcc i32 @classify_mbrtu_packet(ptr noundef %0, ptr noundef %1, ptr noundef %6)
  switch i32 %7, label %23 [
    i32 0, label %8
    i32 1, label %15
  ]

8:                                                ; preds = %4
  switch i8 %5, label %13 [
    i8 1, label %25
    i8 2, label %25
    i8 3, label %25
    i8 4, label %25
    i8 5, label %25
    i8 6, label %25
    i8 16, label %9
    i8 15, label %9
  ]

9:                                                ; preds = %8, %8
  %10 = tail call zeroext i8 @tvb_get_uint8(ptr noundef %1, i32 noundef 6)
  %11 = zext i8 %10 to i32
  %12 = add nuw nsw i32 %11, 9
  br label %25

13:                                               ; preds = %8
  %14 = tail call i32 @tvb_captured_length(ptr noundef %1)
  br label %25

15:                                               ; preds = %4
  %.not = icmp sgt i8 %5, -1
  br i1 %.not, label %16, label %25

16:                                               ; preds = %15
  switch i8 %5, label %21 [
    i8 1, label %17
    i8 2, label %17
    i8 3, label %17
    i8 4, label %17
    i8 5, label %25
    i8 6, label %25
    i8 16, label %25
    i8 15, label %25
  ]

17:                                               ; preds = %16, %16, %16, %16
  %18 = tail call zeroext i8 @tvb_get_uint8(ptr noundef %1, i32 noundef 2)
  %19 = zext i8 %18 to i32
  %20 = add nuw nsw i32 %19, 5
  br label %25

21:                                               ; preds = %16
  %22 = tail call i32 @tvb_captured_length(ptr noundef %1)
  br label %25

23:                                               ; preds = %4
  %24 = tail call i32 @tvb_captured_length(ptr noundef %1)
  br label %25

25:                                               ; preds = %16, %16, %16, %16, %15, %8, %8, %8, %8, %8, %8, %23, %21, %17, %13, %9
  %.0 = phi i32 [ %24, %23 ], [ %22, %21 ], [ %20, %17 ], [ %14, %13 ], [ %12, %9 ], [ 8, %8 ], [ 8, %8 ], [ 8, %8 ], [ 8, %8 ], [ 8, %8 ], [ 8, %8 ], [ 5, %15 ], [ 8, %16 ], [ 8, %16 ], [ 8, %16 ], [ 8, %16 ]
  ret i32 %.0
}